target datalayout = "e-m:e-p270:32:32-p271:32:32-p272:64:64-i64:64-i128:128-f80:128-n8:16:32:64-S128"
target triple = "x86_64-pc-linux-gnu"

%struct.x509_purpose_st = type { i32, i32, i32, ptr, ptr, ptr, ptr }

; Function Attrs: nounwind uwtable
define internal void @xptable_free(ptr noundef %0) #0 {
  %2 = alloca ptr, align 8
  store ptr %0, ptr %2, align 8, !tbaa !28
  %3 = load ptr, ptr %2, align 8, !tbaa !28
  %4 = icmp ne ptr %3, null
  br i1 %4, label %6, label %5

5:                                                ; preds = %1
  br label %27

6:                                                ; preds = %1
  %7 = load ptr, ptr %2, align 8, !tbaa !28
  %8 = getelementptr inbounds nuw %struct.x509_purpose_st, ptr %7, i32 0, i32 2
  %9 = load i32, ptr %8, align 8, !tbaa !82
  %10 = and i32 %9, 1
  %11 = icmp ne i32 %10, 0
  br i1 %11, label %12, label %27

12:                                               ; preds = %6
  %13 = load ptr, ptr %2, align 8, !tbaa !28
  %14 = getelementptr inbounds nuw %struct.x509_purpose_st, ptr %13, i32 0, i32 2
  %15 = load i32, ptr %14, align 8, !tbaa !82
  %16 = and i32 %15, 2
  %17 = icmp ne i32 %16, 0
  br i1 %17, label %18, label %25

18:                                               ; preds = %12
  %19 = load ptr, ptr %2, align 8, !tbaa !28
  %20 = getelementptr inbounds nuw %struct.x509_purpose_st, ptr %19, i32 0, i32 4
  %21 = load ptr, ptr %20, align 8, !tbaa !83
  call void @free(ptr noundef %21) #7
  %22 = load ptr, ptr %2, align 8, !tbaa !28
  %23 = getelementptr inbounds nuw %struct.x509_purpose_st, ptr %22, i32 0, i32 5
  %24 = load ptr, ptr %23, align 8, !tbaa !79
  call void @free(ptr noundef %24) #7
  br label %25

25:                                               ; preds = %18, %12
  %26 = load ptr, ptr %2, align 8, !tbaa !28
  call void @free(ptr noundef %26) #7
  br label %27

27:                                               ; preds = %5, %25, %6
  ret void
}