; Function Attrs: mustprogress nounwind willreturn uwtable
define internal void @xptable_free(ptr noundef captures(address_is_null) %0) #7 {
  %.not = icmp eq ptr %0, null
  br i1 %.not, label %14, label %2

2:                                                ; preds = %1
  %3 = getelementptr inbounds nuw i8, ptr %0, i64 8
  %4 = load i32, ptr %3, align 8, !tbaa !79
  %5 = and i32 %4, 1
  %.not6 = icmp eq i32 %5, 0
  br i1 %.not6, label %14, label %6

6:                                                ; preds = %2
  %7 = and i32 %4, 2
  %.not7 = icmp eq i32 %7, 0
  br i1 %.not7, label %13, label %8

8:                                                ; preds = %6
  %9 = getelementptr inbounds nuw i8, ptr %0, i64 24
  %10 = load ptr, ptr %9, align 8, !tbaa !80
  tail call void @free(ptr noundef %10) #10
  %11 = getelementptr inbounds nuw i8, ptr %0, i64 32
  %12 = load ptr, ptr %11, align 8, !tbaa !77
  tail call void @free(ptr noundef %12) #10
  br label %13

13:                                               ; preds = %8, %6
  tail call void @free(ptr noundef nonnull %0) #10
  br label %14

14:                                               ; preds = %1, %13, %2
  ret void
}